target datalayout = "e-m:e-p270:32:32-p271:32:32-p272:64:64-i64:64-i128:128-f80:128-n8:16:32:64-S128"
target triple = "x86_64-pc-linux-gnu"

%"struct.vcpkg::StringLiteral" = type { %"struct.vcpkg::ZStringView" }
%"struct.vcpkg::ZStringView" = type { %"struct.vcpkg::StringView" }
%"struct.vcpkg::StringView" = type { ptr, i64 }
%"struct.std::_Rb_tree_header" = type { %"struct.std::_Rb_tree_node_base", i64 }
%"struct.std::_Rb_tree_node_base" = type { i32, ptr, ptr, ptr }
%"class.std::vector" = type { %"struct.std::_Vector_base" }
%"struct.std::_Vector_base" = type { %"struct.std::_Vector_base<std::__cxx11::basic_string<char>, std::allocator<std::__cxx11::basic_string<char>>>::_Vector_impl" }
%"struct.std::_Vector_base<std::__cxx11::basic_string<char>, std::allocator<std::__cxx11::basic_string<char>>>::_Vector_impl" = type { %"struct.std::_Vector_base<std::__cxx11::basic_string<char>, std::allocator<std::__cxx11::basic_string<char>>>::_Vector_impl_data" }
%"struct.std::_Vector_base<std::__cxx11::basic_string<char>, std::allocator<std::__cxx11::basic_string<char>>>::_Vector_impl_data" = type { ptr, ptr, ptr }
%"class.std::__cxx11::basic_string" = type { %"struct.std::__cxx11::basic_string<char>::_Alloc_hider", i64, %union.anon }
%"struct.std::__cxx11::basic_string<char>::_Alloc_hider" = type { ptr }
%union.anon = type { i64, [8 x i8] }
%"struct.vcpkg::PortApplicableSetting" = type { %"class.std::__cxx11::basic_string", %"class.std::vector" }
%"struct.vcpkg::VcpkgCmdArguments" = type { %"struct.vcpkg::Optional", %"struct.vcpkg::Optional", %"struct.vcpkg::Optional.18", %"struct.vcpkg::Optional", %"struct.vcpkg::Optional", %"struct.vcpkg::Optional", %"struct.vcpkg::Optional", %"struct.vcpkg::Optional", %"struct.vcpkg::Optional", %"struct.vcpkg::Optional", %"struct.vcpkg::Optional", %"struct.vcpkg::Optional", %"struct.vcpkg::Optional", %"struct.vcpkg::Optional", %"struct.vcpkg::Optional", %"struct.vcpkg::Optional", %"class.std::vector", %"class.std::vector", %"class.std::vector", %"class.std::vector", %"class.std::vector", %"struct.vcpkg::Optional", %"struct.vcpkg::Optional", %"struct.vcpkg::Optional", %"struct.vcpkg::Optional", %"struct.vcpkg::Optional.18", %"struct.vcpkg::Optional", %"struct.vcpkg::Optional", %"struct.vcpkg::Optional", %"struct.vcpkg::Optional", %"struct.vcpkg::Optional", %"struct.vcpkg::Optional", %"struct.vcpkg::Optional", %"struct.vcpkg::Optional.22", %"struct.vcpkg::Optional.22", %"class.std::vector", %"struct.vcpkg::Optional.18", %"struct.vcpkg::Optional.18", %"struct.vcpkg::Optional.18", %"struct.vcpkg::Optional.18", %"struct.vcpkg::Optional.18", %"struct.vcpkg::Optional.18", %"struct.vcpkg::Optional.18", %"struct.vcpkg::Optional.18", i8, %"struct.vcpkg::Optional", %"struct.vcpkg::Optional", %"struct.vcpkg::Optional", %"struct.vcpkg::Optional", %"struct.vcpkg::Optional.18", %"struct.vcpkg::Optional.18", %"struct.vcpkg::Optional.18", %"struct.vcpkg::Optional.18", %"struct.vcpkg::Optional.18", %"struct.vcpkg::Optional.18", %"class.std::vector", %"struct.vcpkg::Optional", %"struct.vcpkg::Optional", %"class.std::__cxx11::basic_string", %"struct.vcpkg::Optional.26", i32, %"struct.vcpkg::CmdParser" }
%"struct.vcpkg::Optional.22" = type { %"struct.vcpkg::details::OptionalStorage.23" }
%"struct.vcpkg::details::OptionalStorage.23" = type { %"struct.vcpkg::details::OptionalStorageDtor.24" }
%"struct.vcpkg::details::OptionalStorageDtor.24" = type { i8, %union.anon.25 }
%union.anon.25 = type { %"struct.vcpkg::PortApplicableSetting" }
%"struct.vcpkg::Optional.18" = type { %"struct.vcpkg::details::OptionalStorage.19" }
%"struct.vcpkg::details::OptionalStorage.19" = type { %"struct.vcpkg::details::OptionalStorageDtor.20" }
%"struct.vcpkg::details::OptionalStorageDtor.20" = type { i8, %union.anon.21 }
%union.anon.21 = type { i8 }
%"struct.vcpkg::Optional" = type { %"struct.vcpkg::details::OptionalStorage" }
%"struct.vcpkg::details::OptionalStorage" = type { %"struct.vcpkg::details::OptionalStorageDtor" }
%"struct.vcpkg::details::OptionalStorageDtor" = type { i8, %union.anon.17 }
%union.anon.17 = type { %"class.std::__cxx11::basic_string" }
%"struct.vcpkg::Optional.26" = type { %"struct.vcpkg::details::OptionalStorage.27" }
%"struct.vcpkg::details::OptionalStorage.27" = type { %"struct.vcpkg::details::OptionalStorageDtor.28" }
%"struct.vcpkg::details::OptionalStorageDtor.28" = type { i8, %union.anon.29 }
%union.anon.29 = type { %"struct.vcpkg::StringLiteral" }
%"struct.vcpkg::CmdParser" = type { %"class.std::vector", %"class.std::vector", %"class.std::vector.30", %"class.std::vector.32", %"class.std::map.37" }
%"class.std::vector.30" = type { %"struct.std::_Vector_base.31" }
%"struct.std::_Vector_base.31" = type { %"struct.std::_Vector_base<char, std::allocator<char>>::_Vector_impl" }
%"struct.std::_Vector_base<char, std::allocator<char>>::_Vector_impl" = type { %"struct.std::_Vector_base<char, std::allocator<char>>::_Vector_impl_data" }
%"struct.std::_Vector_base<char, std::allocator<char>>::_Vector_impl_data" = type { ptr, ptr, ptr }
%"class.std::vector.32" = type { %"struct.std::_Vector_base.33" }
%"struct.std::_Vector_base.33" = type { %"struct.std::_Vector_base<vcpkg::LocalizedString, std::allocator<vcpkg::LocalizedString>>::_Vector_impl" }
%"struct.std::_Vector_base<vcpkg::LocalizedString, std::allocator<vcpkg::LocalizedString>>::_Vector_impl" = type { %"struct.std::_Vector_base<vcpkg::LocalizedString, std::allocator<vcpkg::LocalizedString>>::_Vector_impl_data" }
%"struct.std::_Vector_base<vcpkg::LocalizedString, std::allocator<vcpkg::LocalizedString>>::_Vector_impl_data" = type { ptr, ptr, ptr }
%"class.std::map.37" = type { %"class.std::_Rb_tree.38" }
%"class.std::_Rb_tree.38" = type { %"struct.std::_Rb_tree<vcpkg::OptionTableKey, std::pair<const vcpkg::OptionTableKey, vcpkg::LocalizedString>, std::_Select1st<std::pair<const vcpkg::OptionTableKey, vcpkg::LocalizedString>>, std::less<vcpkg::OptionTableKey>>::_Rb_tree_impl" }
%"struct.std::_Rb_tree<vcpkg::OptionTableKey, std::pair<const vcpkg::OptionTableKey, vcpkg::LocalizedString>, std::_Select1st<std::pair<const vcpkg::OptionTableKey, vcpkg::LocalizedString>>, std::less<vcpkg::OptionTableKey>>::_Rb_tree_impl" = type { [8 x i8], %"struct.std::_Rb_tree_header" }
%struct.anon.94 = type <{ %"struct.vcpkg::StringView", %"struct.vcpkg::Optional.18", [6 x i8] }>

@.str.7 = private unnamed_addr constant [15 x i8] c"Feature flag '\00", align 1
@.str.8 = private unnamed_addr constant [5 x i8] c"' = \00", align 1
@.str.9 = private unnamed_addr constant [3 x i8] c"on\00", align 1
@.str.10 = private unnamed_addr constant [4 x i8] c"off\00", align 1
@.str.11 = private unnamed_addr constant [8 x i8] c"' unset\00", align 1
@_ZN5vcpkg24FeatureFlagBinarycachingE = linkonce_odr dso_local constant { ptr, i64 } { ptr @.str.4, i64 13 }, comdat, align 8
@_ZN5vcpkg27FeatureFlagCompilertrackingE = linkonce_odr dso_local constant { ptr, i64 } { ptr @.str.201, i64 16 }, comdat, align 8
@_ZN5vcpkg21FeatureFlagRegistriesE = linkonce_odr dso_local constant { ptr, i64 } { ptr @.str.203, i64 10 }, comdat, align 8
@_ZN5vcpkg19FeatureFlagVersionsE = linkonce_odr dso_local constant { ptr, i64 } { ptr @.str.205, i64 8 }, comdat, align 8
@_ZN5vcpkg26FeatureFlagDependencygraphE = linkonce_odr dso_local constant { ptr, i64 } { ptr @.str.207, i64 15 }, comdat, align 8

; Function Attrs: mustprogress nounwind uwtable
define linkonce_odr dso_local void @_ZN5vcpkg7details19OptionalStorageDtorIbLb1EEC2Ev(ptr noundef nonnull align 1 dereferenceable(2) %0) unnamed_addr #0 comdat align 2 {
  %2 = alloca ptr, align 8
  store ptr %0, ptr %2, align 8, !tbaa !487
  %3 = load ptr, ptr %2, align 8
  %4 = getelementptr inbounds nuw %"struct.vcpkg::details::OptionalStorageDtor.20", ptr %3, i32 0, i32 0
  store i8 0, ptr %4, align 1, !tbaa !108
  %5 = getelementptr inbounds nuw %"struct.vcpkg::details::OptionalStorageDtor.20", ptr %3, i32 0, i32 1
  store i8 0, ptr %5, align 1, !tbaa !23
  ret void
}

; Function Attrs: mustprogress nounwind uwtable
define linkonce_odr dso_local void @_ZN5vcpkg7details15OptionalStorageIbLb1EEC2ERKS2_(ptr noundef nonnull align 1 dereferenceable(2) %0, ptr noundef nonnull align 1 dereferenceable(2) %1) unnamed_addr #0 comdat align 2 {
  %3 = alloca ptr, align 8
  %4 = alloca ptr, align 8
  store ptr %0, ptr %3, align 8, !tbaa !106
  store ptr %1, ptr %4, align 8, !tbaa !106
  %5 = load ptr, ptr %3, align 8
  call void @_ZN5vcpkg7details19OptionalStorageDtorIbLb1EEC2Ev(ptr noundef nonnull align 1 dereferenceable(2) %5)
  %6 = load ptr, ptr %4, align 8, !tbaa !106
  %7 = getelementptr inbounds nuw %"struct.vcpkg::details::OptionalStorageDtor.20", ptr %6, i32 0, i32 0
  %8 = load i8, ptr %7, align 1, !tbaa !108, !range !75, !noundef !76
  %9 = trunc i8 %8 to i1
  br i1 %9, label %10, label %18

10:                                               ; preds = %2
  %11 = getelementptr inbounds nuw %"struct.vcpkg::details::OptionalStorageDtor.20", ptr %5, i32 0, i32 0
  store i8 1, ptr %11, align 1, !tbaa !108
  %12 = getelementptr inbounds nuw %"struct.vcpkg::details::OptionalStorageDtor.20", ptr %5, i32 0, i32 1
  %13 = load ptr, ptr %4, align 8, !tbaa !106
  %14 = getelementptr inbounds nuw %"struct.vcpkg::details::OptionalStorageDtor.20", ptr %13, i32 0, i32 1
  %15 = load i8, ptr %14, align 1, !tbaa !23, !range !75, !noundef !76
  %16 = trunc i8 %15 to i1
  %17 = zext i1 %16 to i8
  store i8 %17, ptr %12, align 1, !tbaa !59
  br label %18

18:                                               ; preds = %10, %2
  ret void
}

; Function Attrs: mustprogress nounwind uwtable
define linkonce_odr dso_local noundef ptr @_ZNKR5vcpkg7details15OptionalStorageIbLb1EE3getEv(ptr noundef nonnull align 1 dereferenceable(2) %0) #0 comdat align 2 {
  %2 = alloca ptr, align 8
  store ptr %0, ptr %2, align 8, !tbaa !106
  %3 = load ptr, ptr %2, align 8
  %4 = getelementptr inbounds nuw %"struct.vcpkg::details::OptionalStorageDtor.20", ptr %3, i32 0, i32 0
  %5 = load i8, ptr %4, align 1, !tbaa !108, !range !75, !noundef !76
  %6 = trunc i8 %5 to i1
  br i1 %6, label %7, label %9

7:                                                ; preds = %1
  %8 = getelementptr inbounds nuw %"struct.vcpkg::details::OptionalStorageDtor.20", ptr %3, i32 0, i32 1
  br label %10

9:                                                ; preds = %1
  br label %10

10:                                               ; preds = %9, %7
  %11 = phi ptr [ %8, %7 ], [ null, %9 ]
  ret ptr %11
}

; Function Attrs: inlinehint mustprogress nounwind uwtable
define linkonce_odr dso_local void @_ZN5vcpkg8OptionalIbEC2ERKS1_(ptr noundef nonnull align 1 dereferenceable(2) %0, ptr noundef nonnull align 1 dereferenceable(2) %1) unnamed_addr #7 comdat align 2 {
  %3 = alloca ptr, align 8
  %4 = alloca ptr, align 8
  store ptr %0, ptr %3, align 8, !tbaa !98
  store ptr %1, ptr %4, align 8, !tbaa !98
  %5 = load ptr, ptr %3, align 8
  %6 = load ptr, ptr %4, align 8, !tbaa !98
  call void @_ZN5vcpkg7details15OptionalStorageIbLb1EEC2ERKS2_(ptr noundef nonnull align 1 dereferenceable(2) %5, ptr noundef nonnull align 1 dereferenceable(2) %6) #21
  ret void
}

; Function Attrs: mustprogress uwtable
define dso_local void @_ZNK5vcpkg17VcpkgCmdArguments25debug_print_feature_flagsEv(ptr noundef nonnull align 8 dereferenceable(1840) %0) #2 align 2 {
  %2 = alloca ptr, align 8
  %3 = alloca [5 x %struct.anon.94], align 16
  %4 = alloca ptr, align 8
  %5 = alloca ptr, align 8
  %6 = alloca ptr, align 8
  %7 = alloca ptr, align 8
  %8 = alloca ptr, align 8
  %9 = alloca ptr, align 8
  store ptr %0, ptr %2, align 8, !tbaa !96
  %10 = load ptr, ptr %2, align 8
  call void @llvm.lifetime.start.p0(i64 120, ptr %3) #21
  %11 = getelementptr inbounds nuw %struct.anon.94, ptr %3, i32 0, i32 0
  call void @llvm.memcpy.p0.p0.i64(ptr align 8 %11, ptr align 8 @_ZN5vcpkg24FeatureFlagBinarycachingE, i64 16, i1 false), !tbaa.struct !46
  %12 = getelementptr inbounds nuw %struct.anon.94, ptr %3, i32 0, i32 1
  %13 = getelementptr inbounds nuw %"struct.vcpkg::VcpkgCmdArguments", ptr %10, i32 0, i32 51
  call void @_ZN5vcpkg8OptionalIbEC2ERKS1_(ptr noundef nonnull align 1 dereferenceable(2) %12, ptr noundef nonnull align 1 dereferenceable(2) %13) #21
  %14 = getelementptr inbounds %struct.anon.94, ptr %3, i64 1
  %15 = getelementptr inbounds nuw %struct.anon.94, ptr %14, i32 0, i32 0
  call void @llvm.memcpy.p0.p0.i64(ptr align 8 %15, ptr align 8 @_ZN5vcpkg27FeatureFlagCompilertrackingE, i64 16, i1 false), !tbaa.struct !46
  %16 = getelementptr inbounds nuw %struct.anon.94, ptr %14, i32 0, i32 1
  %17 = getelementptr inbounds nuw %"struct.vcpkg::VcpkgCmdArguments", ptr %10, i32 0, i32 52
  call void @_ZN5vcpkg8OptionalIbEC2ERKS1_(ptr noundef nonnull align 1 dereferenceable(2) %16, ptr noundef nonnull align 1 dereferenceable(2) %17) #21
  %18 = getelementptr inbounds %struct.anon.94, ptr %3, i64 2
  %19 = getelementptr inbounds nuw %struct.anon.94, ptr %18, i32 0, i32 0
  call void @llvm.memcpy.p0.p0.i64(ptr align 8 %19, ptr align 8 @_ZN5vcpkg21FeatureFlagRegistriesE, i64 16, i1 false), !tbaa.struct !46
  %20 = getelementptr inbounds nuw %struct.anon.94, ptr %18, i32 0, i32 1
  %21 = getelementptr inbounds nuw %"struct.vcpkg::VcpkgCmdArguments", ptr %10, i32 0, i32 53
  call void @_ZN5vcpkg8OptionalIbEC2ERKS1_(ptr noundef nonnull align 1 dereferenceable(2) %20, ptr noundef nonnull align 1 dereferenceable(2) %21) #21
  %22 = getelementptr inbounds %struct.anon.94, ptr %3, i64 3
  %23 = getelementptr inbounds nuw %struct.anon.94, ptr %22, i32 0, i32 0
  call void @llvm.memcpy.p0.p0.i64(ptr align 8 %23, ptr align 8 @_ZN5vcpkg19FeatureFlagVersionsE, i64 16, i1 false), !tbaa.struct !46
  %24 = getelementptr inbounds nuw %struct.anon.94, ptr %22, i32 0, i32 1
  %25 = getelementptr inbounds nuw %"struct.vcpkg::VcpkgCmdArguments", ptr %10, i32 0, i32 54
  call void @_ZN5vcpkg8OptionalIbEC2ERKS1_(ptr noundef nonnull align 1 dereferenceable(2) %24, ptr noundef nonnull align 1 dereferenceable(2) %25) #21
  %26 = getelementptr inbounds %struct.anon.94, ptr %3, i64 4
  %27 = getelementptr inbounds nuw %struct.anon.94, ptr %26, i32 0, i32 0
  call void @llvm.memcpy.p0.p0.i64(ptr align 8 %27, ptr align 8 @_ZN5vcpkg26FeatureFlagDependencygraphE, i64 16, i1 false), !tbaa.struct !46
  %28 = getelementptr inbounds nuw %struct.anon.94, ptr %26, i32 0, i32 1
  %29 = getelementptr inbounds nuw %"struct.vcpkg::VcpkgCmdArguments", ptr %10, i32 0, i32 49
  call void @_ZN5vcpkg8OptionalIbEC2ERKS1_(ptr noundef nonnull align 1 dereferenceable(2) %28, ptr noundef nonnull align 1 dereferenceable(2) %29) #21
  call void @llvm.lifetime.start.p0(i64 8, ptr %4) #21
  store ptr %3, ptr %4, align 8, !tbaa !189
  call void @llvm.lifetime.start.p0(i64 8, ptr %5) #21
  %30 = load ptr, ptr %4, align 8, !tbaa !189
  %31 = getelementptr inbounds [5 x %struct.anon.94], ptr %30, i64 0, i64 0
  store ptr %31, ptr %5, align 8, !tbaa !189
  call void @llvm.lifetime.start.p0(i64 8, ptr %6) #21
  %32 = load ptr, ptr %4, align 8, !tbaa !189
  %33 = getelementptr inbounds [5 x %struct.anon.94], ptr %32, i64 0, i64 0
  %34 = getelementptr inbounds %struct.anon.94, ptr %33, i64 5
  store ptr %34, ptr %6, align 8, !tbaa !189
  br label %35

35:                                               ; preds = %58, %1
  %36 = load ptr, ptr %5, align 8, !tbaa !189
  %37 = load ptr, ptr %6, align 8, !tbaa !189
  %38 = icmp ne ptr %36, %37
  br i1 %38, label %40, label %39

39:                                               ; preds = %35
  call void @llvm.lifetime.end.p0(i64 8, ptr %6) #21
  call void @llvm.lifetime.end.p0(i64 8, ptr %5) #21
  call void @llvm.lifetime.end.p0(i64 8, ptr %4) #21
  br label %61

40:                                               ; preds = %35
  call void @llvm.lifetime.start.p0(i64 8, ptr %7) #21
  %41 = load ptr, ptr %5, align 8, !tbaa !189
  store ptr %41, ptr %7, align 8, !tbaa !189
  call void @llvm.lifetime.start.p0(i64 8, ptr %8) #21
  %42 = load ptr, ptr %7, align 8, !tbaa !189
  %43 = getelementptr inbounds nuw %struct.anon.94, ptr %42, i32 0, i32 1
  %44 = call noundef ptr @_ZNKR5vcpkg7details15OptionalStorageIbLb1EE3getEv(ptr noundef nonnull align 1 dereferenceable(2) %43) #21
  store ptr %44, ptr %8, align 8, !tbaa !77
  %45 = load ptr, ptr %8, align 8, !tbaa !77
  %46 = icmp ne ptr %45, null
  br i1 %46, label %47, label %54

47:                                               ; preds = %40
  %48 = load ptr, ptr %7, align 8, !tbaa !189
  %49 = getelementptr inbounds nuw %struct.anon.94, ptr %48, i32 0, i32 0
  call void @llvm.lifetime.start.p0(i64 8, ptr %9) #21
  %50 = load ptr, ptr %8, align 8, !tbaa !77
  %51 = load i8, ptr %50, align 1, !tbaa !59, !range !75, !noundef !76
  %52 = trunc i8 %51 to i1
  %53 = select i1 %52, ptr @.str.9, ptr @.str.10
  store ptr %53, ptr %9, align 8, !tbaa !34
  call void @_ZN5vcpkg5Debug7printlnIJA15_cNS_10StringViewEA5_cPKcEEEvDpRKT_(ptr noundef nonnull align 1 dereferenceable(15) @.str.7, ptr noundef nonnull align 8 dereferenceable(16) %49, ptr noundef nonnull align 1 dereferenceable(5) @.str.8, ptr noundef nonnull align 8 dereferenceable(8) %9)
  call void @llvm.lifetime.end.p0(i64 8, ptr %9) #21
  br label %57

54:                                               ; preds = %40
  %55 = load ptr, ptr %7, align 8, !tbaa !189
  %56 = getelementptr inbounds nuw %struct.anon.94, ptr %55, i32 0, i32 0
  call void @_ZN5vcpkg5Debug7printlnIJA15_cNS_10StringViewEA8_cEEEvDpRKT_(ptr noundef nonnull align 1 dereferenceable(15) @.str.7, ptr noundef nonnull align 8 dereferenceable(16) %56, ptr noundef nonnull align 1 dereferenceable(8) @.str.11)
  br label %57

57:                                               ; preds = %54, %47
  call void @llvm.lifetime.end.p0(i64 8, ptr %8) #21
  call void @llvm.lifetime.end.p0(i64 8, ptr %7) #21
  br label %58

58:                                               ; preds = %57
  %59 = load ptr, ptr %5, align 8, !tbaa !189
  %60 = getelementptr inbounds nuw %struct.anon.94, ptr %59, i32 1
  store ptr %60, ptr %5, align 8, !tbaa !189
  br label %35

61:                                               ; preds = %39
  call void @llvm.lifetime.end.p0(i64 120, ptr %3) #21
  ret void
}