; Function Attrs: mustprogress uwtable
define dso_local void @_ZNK5vcpkg17VcpkgCmdArguments25debug_print_feature_flagsEv(ptr noundef nonnull readonly align 8 captures(none) dereferenceable(1840) %0) local_unnamed_addr #4 align 2 {
  %2 = alloca [5 x %struct.anon.94], align 16
  %3 = alloca ptr, align 8
  call void @llvm.lifetime.start.p0(i64 120, ptr nonnull %2) #27
  call void @llvm.memcpy.p0.p0.i64(ptr noundef nonnull align 16 dereferenceable(16) %2, ptr noundef nonnull align 8 dereferenceable(16) @_ZN5vcpkg24FeatureFlagBinarycachingE, i64 16, i1 false), !tbaa.struct !340
  %4 = getelementptr inbounds nuw i8, ptr %2, i64 16
  %5 = getelementptr inbounds nuw i8, ptr %0, i64 1516
  store i8 0, ptr %4, align 16, !tbaa !110
  %6 = getelementptr inbounds nuw i8, ptr %2, i64 17
  store i8 0, ptr %6, align 1, !tbaa !22
  %7 = load i8, ptr %5, align 4, !tbaa !110, !range !47, !noundef !48
  %8 = trunc nuw i8 %7 to i1
  br i1 %8, label %9, label %_ZN5vcpkg8OptionalIbEC2ERKS1_.exit

9:                                                ; preds = %1
  store i8 1, ptr %4, align 16, !tbaa !110
  %10 = getelementptr inbounds nuw i8, ptr %0, i64 1517
  %11 = load i8, ptr %10, align 1, !tbaa !22, !range !47, !noundef !48
  store i8 %11, ptr %6, align 1, !tbaa !112
  br label %_ZN5vcpkg8OptionalIbEC2ERKS1_.exit

_ZN5vcpkg8OptionalIbEC2ERKS1_.exit:               ; preds = %1, %9
  %12 = getelementptr inbounds nuw i8, ptr %2, i64 24
  call void @llvm.memcpy.p0.p0.i64(ptr noundef nonnull align 8 dereferenceable(16) %12, ptr noundef nonnull align 8 dereferenceable(16) @_ZN5vcpkg27FeatureFlagCompilertrackingE, i64 16, i1 false), !tbaa.struct !340
  %13 = getelementptr inbounds nuw i8, ptr %2, i64 40
  %14 = getelementptr inbounds nuw i8, ptr %0, i64 1518
  store i8 0, ptr %13, align 8, !tbaa !110
  %15 = getelementptr inbounds nuw i8, ptr %2, i64 41
  store i8 0, ptr %15, align 1, !tbaa !22
  %16 = load i8, ptr %14, align 2, !tbaa !110, !range !47, !noundef !48
  %17 = trunc nuw i8 %16 to i1
  br i1 %17, label %18, label %_ZN5vcpkg8OptionalIbEC2ERKS1_.exit14

18:                                               ; preds = %_ZN5vcpkg8OptionalIbEC2ERKS1_.exit
  store i8 1, ptr %13, align 8, !tbaa !110
  %19 = getelementptr inbounds nuw i8, ptr %0, i64 1519
  %20 = load i8, ptr %19, align 1, !tbaa !22, !range !47, !noundef !48
  store i8 %20, ptr %15, align 1, !tbaa !112
  br label %_ZN5vcpkg8OptionalIbEC2ERKS1_.exit14

_ZN5vcpkg8OptionalIbEC2ERKS1_.exit14:             ; preds = %_ZN5vcpkg8OptionalIbEC2ERKS1_.exit, %18
  %21 = getelementptr inbounds nuw i8, ptr %2, i64 48
  call void @llvm.memcpy.p0.p0.i64(ptr noundef nonnull align 16 dereferenceable(16) %21, ptr noundef nonnull align 8 dereferenceable(16) @_ZN5vcpkg21FeatureFlagRegistriesE, i64 16, i1 false), !tbaa.struct !340
  %22 = getelementptr inbounds nuw i8, ptr %2, i64 64
  %23 = getelementptr inbounds nuw i8, ptr %0, i64 1520
  store i8 0, ptr %22, align 16, !tbaa !110
  %24 = getelementptr inbounds nuw i8, ptr %2, i64 65
  store i8 0, ptr %24, align 1, !tbaa !22
  %25 = load i8, ptr %23, align 8, !tbaa !110, !range !47, !noundef !48
  %26 = trunc nuw i8 %25 to i1
  br i1 %26, label %27, label %_ZN5vcpkg8OptionalIbEC2ERKS1_.exit15

27:                                               ; preds = %_ZN5vcpkg8OptionalIbEC2ERKS1_.exit14
  store i8 1, ptr %22, align 16, !tbaa !110
  %28 = getelementptr inbounds nuw i8, ptr %0, i64 1521
  %29 = load i8, ptr %28, align 1, !tbaa !22, !range !47, !noundef !48
  store i8 %29, ptr %24, align 1, !tbaa !112
  br label %_ZN5vcpkg8OptionalIbEC2ERKS1_.exit15

_ZN5vcpkg8OptionalIbEC2ERKS1_.exit15:             ; preds = %_ZN5vcpkg8OptionalIbEC2ERKS1_.exit14, %27
  %30 = getelementptr inbounds nuw i8, ptr %2, i64 72
  call void @llvm.memcpy.p0.p0.i64(ptr noundef nonnull align 8 dereferenceable(16) %30, ptr noundef nonnull align 8 dereferenceable(16) @_ZN5vcpkg19FeatureFlagVersionsE, i64 16, i1 false), !tbaa.struct !340
  %31 = getelementptr inbounds nuw i8, ptr %2, i64 88
  %32 = getelementptr inbounds nuw i8, ptr %0, i64 1522
  store i8 0, ptr %31, align 8, !tbaa !110
  %33 = getelementptr inbounds nuw i8, ptr %2, i64 89
  store i8 0, ptr %33, align 1, !tbaa !22
  %34 = load i8, ptr %32, align 2, !tbaa !110, !range !47, !noundef !48
  %35 = trunc nuw i8 %34 to i1
  br i1 %35, label %36, label %_ZN5vcpkg8OptionalIbEC2ERKS1_.exit16

36:                                               ; preds = %_ZN5vcpkg8OptionalIbEC2ERKS1_.exit15
  store i8 1, ptr %31, align 8, !tbaa !110
  %37 = getelementptr inbounds nuw i8, ptr %0, i64 1523
  %38 = load i8, ptr %37, align 1, !tbaa !22, !range !47, !noundef !48
  store i8 %38, ptr %33, align 1, !tbaa !112
  br label %_ZN5vcpkg8OptionalIbEC2ERKS1_.exit16

_ZN5vcpkg8OptionalIbEC2ERKS1_.exit16:             ; preds = %_ZN5vcpkg8OptionalIbEC2ERKS1_.exit15, %36
  %39 = getelementptr inbounds nuw i8, ptr %2, i64 96
  call void @llvm.memcpy.p0.p0.i64(ptr noundef nonnull align 16 dereferenceable(16) %39, ptr noundef nonnull align 8 dereferenceable(16) @_ZN5vcpkg26FeatureFlagDependencygraphE, i64 16, i1 false), !tbaa.struct !340
  %40 = getelementptr inbounds nuw i8, ptr %2, i64 112
  %41 = getelementptr inbounds nuw i8, ptr %0, i64 1512
  store i8 0, ptr %40, align 16, !tbaa !110
  %42 = getelementptr inbounds nuw i8, ptr %2, i64 113
  store i8 0, ptr %42, align 1, !tbaa !22
  %43 = load i8, ptr %41, align 8, !tbaa !110, !range !47, !noundef !48
  %44 = trunc nuw i8 %43 to i1
  br i1 %44, label %45, label %_ZN5vcpkg8OptionalIbEC2ERKS1_.exit17.preheader

45:                                               ; preds = %_ZN5vcpkg8OptionalIbEC2ERKS1_.exit16
  store i8 1, ptr %40, align 16, !tbaa !110
  %46 = getelementptr inbounds nuw i8, ptr %0, i64 1513
  %47 = load i8, ptr %46, align 1, !tbaa !22, !range !47, !noundef !48
  store i8 %47, ptr %42, align 1, !tbaa !112
  br label %_ZN5vcpkg8OptionalIbEC2ERKS1_.exit17.preheader

_ZN5vcpkg8OptionalIbEC2ERKS1_.exit17.preheader:   ; preds = %_ZN5vcpkg8OptionalIbEC2ERKS1_.exit16, %45
  br label %_ZN5vcpkg8OptionalIbEC2ERKS1_.exit17

48:                                               ; preds = %58
  call void @llvm.lifetime.end.p0(i64 120, ptr nonnull %2) #27
  ret void

_ZN5vcpkg8OptionalIbEC2ERKS1_.exit17:             ; preds = %_ZN5vcpkg8OptionalIbEC2ERKS1_.exit17.preheader, %58
  %.0.idx18 = phi i64 [ %.0.add, %58 ], [ 0, %_ZN5vcpkg8OptionalIbEC2ERKS1_.exit17.preheader ]
  %.0.ptr19 = getelementptr inbounds nuw i8, ptr %2, i64 %.0.idx18
  %49 = getelementptr inbounds nuw i8, ptr %.0.ptr19, i64 16
  %50 = load i8, ptr %49, align 8, !tbaa !110, !range !47, !noundef !48
  %51 = trunc nuw i8 %50 to i1
  br i1 %51, label %52, label %57

52:                                               ; preds = %_ZN5vcpkg8OptionalIbEC2ERKS1_.exit17
  %53 = getelementptr inbounds nuw i8, ptr %.0.ptr19, i64 17
  call void @llvm.lifetime.start.p0(i64 8, ptr nonnull %3) #27
  %54 = load i8, ptr %53, align 1, !tbaa !112, !range !47, !noundef !48
  %55 = trunc nuw i8 %54 to i1
  %56 = select i1 %55, ptr @.str.9, ptr @.str.10
  store ptr %56, ptr %3, align 8, !tbaa !13
  call void @_ZN5vcpkg5Debug7printlnIJA15_cNS_10StringViewEA5_cPKcEEEvDpRKT_(ptr noundef nonnull align 1 dereferenceable(15) @.str.7, ptr noundef nonnull align 8 dereferenceable(16) %.0.ptr19, ptr noundef nonnull align 1 dereferenceable(5) @.str.8, ptr noundef nonnull align 8 dereferenceable(8) %3)
  call void @llvm.lifetime.end.p0(i64 8, ptr nonnull %3) #27
  br label %58

57:                                               ; preds = %_ZN5vcpkg8OptionalIbEC2ERKS1_.exit17
  call void @_ZN5vcpkg5Debug7printlnIJA15_cNS_10StringViewEA8_cEEEvDpRKT_(ptr noundef nonnull align 1 dereferenceable(15) @.str.7, ptr noundef nonnull align 8 dereferenceable(16) %.0.ptr19, ptr noundef nonnull align 1 dereferenceable(8) @.str.11)
  br label %58

58:                                               ; preds = %57, %52
  %.0.add = add nuw nsw i64 %.0.idx18, 24
  %.not = icmp eq i64 %.0.add, 120
  br i1 %.not, label %48, label %_ZN5vcpkg8OptionalIbEC2ERKS1_.exit17
}